; Function Attrs: mustprogress uwtable
define internal noundef ptr @_ZN12_GLOBAL__N_120elim_small_bv_tactic9translateER11ast_manager(ptr noundef nonnull align 8 dereferenceable(688) %this, ptr noundef nonnull align 8 dereferenceable(976) %m) unnamed_addr #3 align 2 personality ptr @__gxx_personality_v0 {
entry:
  %call = tail call noalias noundef ptr @_ZN6memory8allocateEm(i64 noundef 688)
  %m_params = getelementptr inbounds i8, ptr %this, i64 680
  %m_ref_count.i.i = getelementptr inbounds i8, ptr %call, i64 8
  store i32 0, ptr %m_ref_count.i.i, align 8
  store ptr getelementptr inbounds ({ [25 x ptr] }, ptr @_ZTVN12_GLOBAL__N_120elim_small_bv_tacticE, i64 0, i32 0, i64 2), ptr %call, align 8
  %m2.i = getelementptr inbounds i8, ptr %call, i64 16
  store ptr %m, ptr %m2.i, align 8
  %m_rw.i = getelementptr inbounds i8, ptr %call, i64 24
  tail call fastcc void @_ZN12_GLOBAL__N_120elim_small_bv_tactic2rwC2ER11ast_managerRK10params_ref(ptr noundef nonnull align 8 dereferenceable(656) %m_rw.i, ptr noundef nonnull align 8 dereferenceable(976) %m, ptr noundef nonnull align 8 dereferenceable(8) %m_params)
  %m_params.i = getelementptr inbounds i8, ptr %call, i64 680
  invoke void @_ZN10params_refC1ERKS_(ptr noundef nonnull align 8 dereferenceable(8) %m_params.i, ptr noundef nonnull align 8 dereferenceable(8) %m_params)
          to label %_ZN12_GLOBAL__N_120elim_small_bv_tacticC2ER11ast_managerRK10params_ref.exit unwind label %lpad3.i

lpad3.i:                                          ; preds = %entry
  %0 = landingpad { ptr, i32 }
          cleanup
  tail call void @_ZN12_GLOBAL__N_120elim_small_bv_tactic2rwD2Ev(ptr noundef nonnull align 8 dereferenceable(656) %m_rw.i) #15
  resume { ptr, i32 } %0

_ZN12_GLOBAL__N_120elim_small_bv_tacticC2ER11ast_managerRK10params_ref.exit: ; preds = %entry
  ret ptr %call
}